target datalayout = "e-m:e-p270:32:32-p271:32:32-p272:64:64-i64:64-i128:128-f80:128-n8:16:32:64-S128"
target triple = "x86_64-pc-linux-gnu"

%struct.t_blocka = type { i32, ptr, i32, ptr, i32, i32 }
%struct.gmx_ana_indexmap_t = type { i32, ptr, ptr, %struct.t_blocka, ptr, %struct.t_blocka, i8 }

@.str.3 = private unnamed_addr constant [129 x i8] c"generated/home/dtcxzyw/WorkSpace/Projects/compilers/llvm-opt-benchmark/bench/gromacs/gromacs/src/gromacs/selection/indexutil.cpp\00", align 1
@.str.28 = private unnamed_addr constant [9 x i8] c"m->refid\00", align 1
@.str.29 = private unnamed_addr constant [9 x i8] c"m->mapid\00", align 1
@.str.30 = private unnamed_addr constant [9 x i8] c"m->orgid\00", align 1
@.str.31 = private unnamed_addr constant [14 x i8] c"m->mapb.index\00", align 1
@.str.32 = private unnamed_addr constant [11 x i8] c"m->b.index\00", align 1
@.str.33 = private unnamed_addr constant [7 x i8] c"m->b.a\00", align 1
@.str.38 = private unnamed_addr constant [10 x i8] c"m->mapb.a\00", align 1

; Function Attrs: mustprogress nounwind uwtable
define void @_Z22gmx_ana_indexmap_clearP18gmx_ana_indexmap_t(ptr noundef %0) #1 {
  %2 = alloca ptr, align 8
  store ptr %0, ptr %2, align 8, !tbaa !476
  %3 = load ptr, ptr %2, align 8, !tbaa !476
  %4 = getelementptr inbounds nuw %struct.gmx_ana_indexmap_t, ptr %3, i32 0, i32 0
  store i32 0, ptr %4, align 8, !tbaa !478
  %5 = load ptr, ptr %2, align 8, !tbaa !476
  %6 = getelementptr inbounds nuw %struct.gmx_ana_indexmap_t, ptr %5, i32 0, i32 1
  store ptr null, ptr %6, align 8, !tbaa !480
  %7 = load ptr, ptr %2, align 8, !tbaa !476
  %8 = getelementptr inbounds nuw %struct.gmx_ana_indexmap_t, ptr %7, i32 0, i32 2
  store ptr null, ptr %8, align 8, !tbaa !481
  %9 = load ptr, ptr %2, align 8, !tbaa !476
  %10 = getelementptr inbounds nuw %struct.gmx_ana_indexmap_t, ptr %9, i32 0, i32 3
  %11 = getelementptr inbounds nuw %struct.t_blocka, ptr %10, i32 0, i32 0
  store i32 0, ptr %11, align 8, !tbaa !482
  %12 = load ptr, ptr %2, align 8, !tbaa !476
  %13 = getelementptr inbounds nuw %struct.gmx_ana_indexmap_t, ptr %12, i32 0, i32 3
  %14 = getelementptr inbounds nuw %struct.t_blocka, ptr %13, i32 0, i32 1
  store ptr null, ptr %14, align 8, !tbaa !483
  %15 = load ptr, ptr %2, align 8, !tbaa !476
  %16 = getelementptr inbounds nuw %struct.gmx_ana_indexmap_t, ptr %15, i32 0, i32 3
  %17 = getelementptr inbounds nuw %struct.t_blocka, ptr %16, i32 0, i32 4
  store i32 0, ptr %17, align 8, !tbaa !484
  %18 = load ptr, ptr %2, align 8, !tbaa !476
  %19 = getelementptr inbounds nuw %struct.gmx_ana_indexmap_t, ptr %18, i32 0, i32 3
  %20 = getelementptr inbounds nuw %struct.t_blocka, ptr %19, i32 0, i32 2
  store i32 0, ptr %20, align 8, !tbaa !485
  %21 = load ptr, ptr %2, align 8, !tbaa !476
  %22 = getelementptr inbounds nuw %struct.gmx_ana_indexmap_t, ptr %21, i32 0, i32 3
  %23 = getelementptr inbounds nuw %struct.t_blocka, ptr %22, i32 0, i32 3
  store ptr null, ptr %23, align 8, !tbaa !486
  %24 = load ptr, ptr %2, align 8, !tbaa !476
  %25 = getelementptr inbounds nuw %struct.gmx_ana_indexmap_t, ptr %24, i32 0, i32 3
  %26 = getelementptr inbounds nuw %struct.t_blocka, ptr %25, i32 0, i32 5
  store i32 0, ptr %26, align 4, !tbaa !487
  %27 = load ptr, ptr %2, align 8, !tbaa !476
  %28 = getelementptr inbounds nuw %struct.gmx_ana_indexmap_t, ptr %27, i32 0, i32 4
  store ptr null, ptr %28, align 8, !tbaa !488
  %29 = load ptr, ptr %2, align 8, !tbaa !476
  %30 = getelementptr inbounds nuw %struct.gmx_ana_indexmap_t, ptr %29, i32 0, i32 5
  %31 = getelementptr inbounds nuw %struct.t_blocka, ptr %30, i32 0, i32 0
  store i32 0, ptr %31, align 8, !tbaa !489
  %32 = load ptr, ptr %2, align 8, !tbaa !476
  %33 = getelementptr inbounds nuw %struct.gmx_ana_indexmap_t, ptr %32, i32 0, i32 5
  %34 = getelementptr inbounds nuw %struct.t_blocka, ptr %33, i32 0, i32 1
  store ptr null, ptr %34, align 8, !tbaa !490
  %35 = load ptr, ptr %2, align 8, !tbaa !476
  %36 = getelementptr inbounds nuw %struct.gmx_ana_indexmap_t, ptr %35, i32 0, i32 5
  %37 = getelementptr inbounds nuw %struct.t_blocka, ptr %36, i32 0, i32 2
  store i32 0, ptr %37, align 8, !tbaa !491
  %38 = load ptr, ptr %2, align 8, !tbaa !476
  %39 = getelementptr inbounds nuw %struct.gmx_ana_indexmap_t, ptr %38, i32 0, i32 5
  %40 = getelementptr inbounds nuw %struct.t_blocka, ptr %39, i32 0, i32 3
  store ptr null, ptr %40, align 8, !tbaa !492
  %41 = load ptr, ptr %2, align 8, !tbaa !476
  %42 = getelementptr inbounds nuw %struct.gmx_ana_indexmap_t, ptr %41, i32 0, i32 5
  %43 = getelementptr inbounds nuw %struct.t_blocka, ptr %42, i32 0, i32 4
  store i32 0, ptr %43, align 8, !tbaa !493
  %44 = load ptr, ptr %2, align 8, !tbaa !476
  %45 = getelementptr inbounds nuw %struct.gmx_ana_indexmap_t, ptr %44, i32 0, i32 5
  %46 = getelementptr inbounds nuw %struct.t_blocka, ptr %45, i32 0, i32 5
  store i32 0, ptr %46, align 4, !tbaa !494
  %47 = load ptr, ptr %2, align 8, !tbaa !476
  %48 = getelementptr inbounds nuw %struct.gmx_ana_indexmap_t, ptr %47, i32 0, i32 6
  store i8 1, ptr %48, align 8, !tbaa !495
  ret void
}

; Function Attrs: inlinehint mustprogress uwtable
define internal void @_ZL14gmx_sfree_implIiEvPKcS1_iPT_(ptr noundef %0, ptr noundef %1, i32 noundef %2, ptr noundef %3) #5 {
  %5 = alloca ptr, align 8
  %6 = alloca ptr, align 8
  %7 = alloca i32, align 4
  %8 = alloca ptr, align 8
  store ptr %0, ptr %5, align 8, !tbaa !54
  store ptr %1, ptr %6, align 8, !tbaa !54
  store i32 %2, ptr %7, align 4, !tbaa !114
  store ptr %3, ptr %8, align 8, !tbaa !77
  %9 = load ptr, ptr %5, align 8, !tbaa !54
  %10 = load ptr, ptr %6, align 8, !tbaa !54
  %11 = load i32, ptr %7, align 4, !tbaa !114
  %12 = load ptr, ptr %8, align 8, !tbaa !77
  call void @_Z9save_freePKcS0_iPv(ptr noundef %9, ptr noundef %10, i32 noundef %11, ptr noundef %12)
  ret void
}

; Function Attrs: mustprogress uwtable
define void @_Z23gmx_ana_indexmap_deinitP18gmx_ana_indexmap_t(ptr noundef %0) #0 {
  %2 = alloca ptr, align 8
  store ptr %0, ptr %2, align 8, !tbaa !476
  %3 = load ptr, ptr %2, align 8, !tbaa !476
  %4 = getelementptr inbounds nuw %struct.gmx_ana_indexmap_t, ptr %3, i32 0, i32 1
  %5 = load ptr, ptr %4, align 8, !tbaa !480
  call void @_ZL14gmx_sfree_implIiEvPKcS1_iPT_(ptr noundef @.str.28, ptr noundef @.str.3, i32 noundef 1454, ptr noundef %5)
  %6 = load ptr, ptr %2, align 8, !tbaa !476
  %7 = getelementptr inbounds nuw %struct.gmx_ana_indexmap_t, ptr %6, i32 0, i32 2
  %8 = load ptr, ptr %7, align 8, !tbaa !481
  %9 = load ptr, ptr %2, align 8, !tbaa !476
  %10 = getelementptr inbounds nuw %struct.gmx_ana_indexmap_t, ptr %9, i32 0, i32 4
  %11 = load ptr, ptr %10, align 8, !tbaa !488
  %12 = icmp ne ptr %8, %11
  br i1 %12, label %13, label %17

13:                                               ; preds = %1
  %14 = load ptr, ptr %2, align 8, !tbaa !476
  %15 = getelementptr inbounds nuw %struct.gmx_ana_indexmap_t, ptr %14, i32 0, i32 2
  %16 = load ptr, ptr %15, align 8, !tbaa !481
  call void @_ZL14gmx_sfree_implIiEvPKcS1_iPT_(ptr noundef @.str.29, ptr noundef @.str.3, i32 noundef 1457, ptr noundef %16)
  br label %17

17:                                               ; preds = %13, %1
  %18 = load ptr, ptr %2, align 8, !tbaa !476
  %19 = getelementptr inbounds nuw %struct.gmx_ana_indexmap_t, ptr %18, i32 0, i32 3
  %20 = getelementptr inbounds nuw %struct.t_blocka, ptr %19, i32 0, i32 4
  %21 = load i32, ptr %20, align 8, !tbaa !484
  %22 = icmp sgt i32 %21, 0
  br i1 %22, label %23, label %28

23:                                               ; preds = %17
  %24 = load ptr, ptr %2, align 8, !tbaa !476
  %25 = getelementptr inbounds nuw %struct.gmx_ana_indexmap_t, ptr %24, i32 0, i32 3
  %26 = getelementptr inbounds nuw %struct.t_blocka, ptr %25, i32 0, i32 1
  %27 = load ptr, ptr %26, align 8, !tbaa !483
  call void @_ZL14gmx_sfree_implIiEvPKcS1_iPT_(ptr noundef @.str.31, ptr noundef @.str.3, i32 noundef 1461, ptr noundef %27)
  br label %28

28:                                               ; preds = %23, %17
  %29 = load ptr, ptr %2, align 8, !tbaa !476
  %30 = getelementptr inbounds nuw %struct.gmx_ana_indexmap_t, ptr %29, i32 0, i32 3
  %31 = getelementptr inbounds nuw %struct.t_blocka, ptr %30, i32 0, i32 5
  %32 = load i32, ptr %31, align 4, !tbaa !487
  %33 = icmp sgt i32 %32, 0
  br i1 %33, label %34, label %39

34:                                               ; preds = %28
  %35 = load ptr, ptr %2, align 8, !tbaa !476
  %36 = getelementptr inbounds nuw %struct.gmx_ana_indexmap_t, ptr %35, i32 0, i32 3
  %37 = getelementptr inbounds nuw %struct.t_blocka, ptr %36, i32 0, i32 3
  %38 = load ptr, ptr %37, align 8, !tbaa !486
  call void @_ZL14gmx_sfree_implIiEvPKcS1_iPT_(ptr noundef @.str.38, ptr noundef @.str.3, i32 noundef 1465, ptr noundef %38)
  br label %39

39:                                               ; preds = %34, %28
  %40 = load ptr, ptr %2, align 8, !tbaa !476
  %41 = getelementptr inbounds nuw %struct.gmx_ana_indexmap_t, ptr %40, i32 0, i32 4
  %42 = load ptr, ptr %41, align 8, !tbaa !488
  call void @_ZL14gmx_sfree_implIiEvPKcS1_iPT_(ptr noundef @.str.30, ptr noundef @.str.3, i32 noundef 1467, ptr noundef %42)
  %43 = load ptr, ptr %2, align 8, !tbaa !476
  %44 = getelementptr inbounds nuw %struct.gmx_ana_indexmap_t, ptr %43, i32 0, i32 5
  %45 = getelementptr inbounds nuw %struct.t_blocka, ptr %44, i32 0, i32 4
  %46 = load i32, ptr %45, align 8, !tbaa !493
  %47 = icmp sgt i32 %46, 0
  br i1 %47, label %48, label %53

48:                                               ; preds = %39
  %49 = load ptr, ptr %2, align 8, !tbaa !476
  %50 = getelementptr inbounds nuw %struct.gmx_ana_indexmap_t, ptr %49, i32 0, i32 5
  %51 = getelementptr inbounds nuw %struct.t_blocka, ptr %50, i32 0, i32 1
  %52 = load ptr, ptr %51, align 8, !tbaa !490
  call void @_ZL14gmx_sfree_implIiEvPKcS1_iPT_(ptr noundef @.str.32, ptr noundef @.str.3, i32 noundef 1470, ptr noundef %52)
  br label %53

53:                                               ; preds = %48, %39
  %54 = load ptr, ptr %2, align 8, !tbaa !476
  %55 = getelementptr inbounds nuw %struct.gmx_ana_indexmap_t, ptr %54, i32 0, i32 5
  %56 = getelementptr inbounds nuw %struct.t_blocka, ptr %55, i32 0, i32 5
  %57 = load i32, ptr %56, align 4, !tbaa !494
  %58 = icmp sgt i32 %57, 0
  br i1 %58, label %59, label %64

59:                                               ; preds = %53
  %60 = load ptr, ptr %2, align 8, !tbaa !476
  %61 = getelementptr inbounds nuw %struct.gmx_ana_indexmap_t, ptr %60, i32 0, i32 5
  %62 = getelementptr inbounds nuw %struct.t_blocka, ptr %61, i32 0, i32 3
  %63 = load ptr, ptr %62, align 8, !tbaa !492
  call void @_ZL14gmx_sfree_implIiEvPKcS1_iPT_(ptr noundef @.str.33, ptr noundef @.str.3, i32 noundef 1474, ptr noundef %63)
  br label %64

64:                                               ; preds = %59, %53
  %65 = load ptr, ptr %2, align 8, !tbaa !476
  call void @_Z22gmx_ana_indexmap_clearP18gmx_ana_indexmap_t(ptr noundef %65)
  ret void
}