; Function Attrs: mustprogress uwtable
define void @_Z23gmx_ana_indexmap_deinitP18gmx_ana_indexmap_t(ptr noundef captures(none) initializes((0, 4), (24, 28), (40, 44), (72, 76), (88, 92), (112, 113)) %0) local_unnamed_addr #0 {
  %2 = getelementptr inbounds nuw i8, ptr %0, i64 8
  %3 = load ptr, ptr %2, align 8, !tbaa !260
  tail call void @_Z9save_freePKcS0_iPv(ptr noundef nonnull @.str.28, ptr noundef nonnull @.str.3, i32 noundef 1454, ptr noundef %3)
  %4 = getelementptr inbounds nuw i8, ptr %0, i64 16
  %5 = load ptr, ptr %4, align 8, !tbaa !261
  %6 = getelementptr inbounds nuw i8, ptr %0, i64 64
  %7 = load ptr, ptr %6, align 8, !tbaa !262
  %.not = icmp eq ptr %5, %7
  br i1 %.not, label %9, label %8

8:                                                ; preds = %1
  tail call void @_Z9save_freePKcS0_iPv(ptr noundef nonnull @.str.29, ptr noundef nonnull @.str.3, i32 noundef 1457, ptr noundef %5)
  br label %9

9:                                                ; preds = %8, %1
  %10 = getelementptr inbounds nuw i8, ptr %0, i64 56
  %11 = load i32, ptr %10, align 8, !tbaa !256
  %12 = icmp sgt i32 %11, 0
  br i1 %12, label %13, label %16

13:                                               ; preds = %9
  %14 = getelementptr inbounds nuw i8, ptr %0, i64 32
  %15 = load ptr, ptr %14, align 8, !tbaa !251
  tail call void @_Z9save_freePKcS0_iPv(ptr noundef nonnull @.str.31, ptr noundef nonnull @.str.3, i32 noundef 1461, ptr noundef %15)
  br label %16

16:                                               ; preds = %13, %9
  %17 = getelementptr inbounds nuw i8, ptr %0, i64 60
  %18 = load i32, ptr %17, align 4, !tbaa !270
  %19 = icmp sgt i32 %18, 0
  br i1 %19, label %20, label %23

20:                                               ; preds = %16
  %21 = getelementptr inbounds nuw i8, ptr %0, i64 48
  %22 = load ptr, ptr %21, align 8, !tbaa !266
  tail call void @_Z9save_freePKcS0_iPv(ptr noundef nonnull @.str.38, ptr noundef nonnull @.str.3, i32 noundef 1465, ptr noundef %22)
  br label %23

23:                                               ; preds = %20, %16
  %24 = load ptr, ptr %6, align 8, !tbaa !262
  tail call void @_Z9save_freePKcS0_iPv(ptr noundef nonnull @.str.30, ptr noundef nonnull @.str.3, i32 noundef 1467, ptr noundef %24)
  %25 = getelementptr inbounds nuw i8, ptr %0, i64 104
  %26 = load i32, ptr %25, align 8, !tbaa !257
  %27 = icmp sgt i32 %26, 0
  br i1 %27, label %28, label %31

28:                                               ; preds = %23
  %29 = getelementptr inbounds nuw i8, ptr %0, i64 80
  %30 = load ptr, ptr %29, align 8, !tbaa !253
  tail call void @_Z9save_freePKcS0_iPv(ptr noundef nonnull @.str.32, ptr noundef nonnull @.str.3, i32 noundef 1470, ptr noundef %30)
  br label %31

31:                                               ; preds = %28, %23
  %32 = getelementptr inbounds nuw i8, ptr %0, i64 108
  %33 = load i32, ptr %32, align 4, !tbaa !258
  %34 = icmp sgt i32 %33, 0
  br i1 %34, label %35, label %38

35:                                               ; preds = %31
  %36 = getelementptr inbounds nuw i8, ptr %0, i64 96
  %37 = load ptr, ptr %36, align 8, !tbaa !264
  tail call void @_Z9save_freePKcS0_iPv(ptr noundef nonnull @.str.33, ptr noundef nonnull @.str.3, i32 noundef 1474, ptr noundef %37)
  br label %38

38:                                               ; preds = %35, %31
  store i32 0, ptr %0, align 8, !tbaa !248
  %39 = getelementptr inbounds nuw i8, ptr %0, i64 32
  store ptr null, ptr %39, align 8, !tbaa !251
  %40 = getelementptr inbounds nuw i8, ptr %0, i64 40
  store i32 0, ptr %40, align 8, !tbaa !252
  %41 = getelementptr inbounds nuw i8, ptr %0, i64 48
  %42 = getelementptr inbounds nuw i8, ptr %0, i64 80
  store ptr null, ptr %42, align 8, !tbaa !253
  %43 = getelementptr inbounds nuw i8, ptr %0, i64 88
  store i32 0, ptr %43, align 8, !tbaa !254
  %44 = getelementptr inbounds nuw i8, ptr %0, i64 96
  %45 = getelementptr inbounds nuw i8, ptr %0, i64 112
  tail call void @llvm.memset.p0.i64(ptr noundef nonnull align 8 dereferenceable(20) %2, i8 0, i64 20, i1 false)
  tail call void @llvm.memset.p0.i64(ptr noundef nonnull align 8 dereferenceable(28) %41, i8 0, i64 28, i1 false)
  tail call void @llvm.memset.p0.i64(ptr noundef nonnull align 8 dereferenceable(16) %44, i8 0, i64 16, i1 false)
  store i8 1, ptr %45, align 8, !tbaa !255
  ret void
}